(dp0
S'Canada'
p1
I4
sS'Turkey'
p2
I47
sS'Argentina'
p3
I52
sS'Italy'
p4
I20
sS'Czech Republic'
p5
I15
sS'USA'
p6
I1
sS'Afghanistan'
p7
I60
sS'Panama'
p8
I34
sS'Kyrgyzstan'
p9
I56
sS'Cambodia'
p10
I39
sS'France'
p11
I10
sS'Bahamas'
p12
I51
sS'West Germany'
p13
I30
sS'Georgia'
p14
I45
sS'Aruba'
p15
I22
sS'Peru'
p16
I19
sS'Nigeria'
p17
I48
sS'Norway'
p18
I46
sS'Thailand'
p19
I40
sS'Kenya'
p20
I64
sS'Slovakia'
p21
I41
sS'Australia'
p22
I5
sS'Iran'
p23
I43
sS'Indonesia'
p24
I57
sS'Iceland'
p25
I27
sS'Official site'
p26
I38
sS'New Line'
p27
I11
sS'Slovenia'
p28
I59
sS'China'
p29
I9
sS'Chile'
p30
I31
sS'Belgium'
p31
I6
sS'Germany'
p32
I8
sS'Dominican Republic'
p33
I61
sS'Bulgaria'
p34
I42
sS'Hong Kong'
p35
I14
sS'Taiwan'
p36
I37
sS'Spain'
p37
I13
sS'Ireland'
p38
I25
sS'Netherlands'
p39
I32
sS'Colombia'
p40
I53
sS'Libya'
p41
I24
sS'Denmark'
p42
I23
sS'Poland'
p43
I44
sS'Finland'
p44
I50
sS'Israel'
p45
I54
sS'Cameroon'
p46
I62
sS'Philippines'
p47
I65
sS'Sweden'
p48
I36
sS'Hungary'
p49
I33
sS'Switzerland'
p50
I28
sS'New Zealand'
p51
I3
sS'Russia'
p52
I21
sS'Brazil'
p53
I49
sS'Soviet Union'
p54
I17
sS'Pakistan'
p55
I58
sS'Romania'
p56
I29
sS'Mexico'
p57
I12
sS'Egypt'
p58
I55
sS'United Arab Emirates'
p59
I63
sS'South Africa'
p60
I26
sS'India'
p61
I16
sS'UK'
p62
I2
sS'Greece'
p63
I35
sS'Japan'
p64
I7
sS'South Korea'
p65
I18
s.