(dp0
S'Swedish'
p1
I23
sS'Swahili'
p2
I47
sS'Icelandic'
p3
I14
sS'Telugu'
p4
I12
sS'Vietnamese'
p5
I40
sS'Romanian'
p6
I43
sS'Slovenian'
p7
I45
sS'Hindi'
p8
I8
sS'Dutch'
p9
I18
sS'Mandarin'
p10
I4
sS'Korean'
p11
I24
sS'Danish'
p12
I31
sS'Indonesian'
p13
I41
sS'Maya'
p14
I10
sS'Hungarian'
p15
I29
sS'Bosnian'
p16
I27
sS'Dari'
p17
I19
sS'French'
p18
I3
sS'Aramaic'
p19
I16
sS'Norwegian'
p20
I33
sS'Aboriginal'
p21
I5
sS'Russian'
p22
I9
sS'Thai'
p23
I25
sS'Cantonese'
p24
I13
sS'Kazakh'
p25
I11
sS'None'
p26
I28
sS'Filipino'
p27
I7
sS'Spanish'
p28
I6
sS'Panjabi'
p29
I37
sS'Greek'
p30
I46
sS'English'
p31
I1
sS'Italian'
p32
I17
sS'Portuguese'
p33
I30
sS'Zulu'
p34
I36
sS'Chinese'
p35
I21
sS'German'
p36
I15
sS'Tamil'
p37
I38
sS'Japanese'
p38
I2
sS'Kannada'
p39
I35
sS'Czech'
p40
I34
sS'Persian'
p41
I44
sS'Mongolian'
p42
I22
sS'Dzongkha'
p43
I39
sS'Hebrew'
p44
I20
sS'Urdu'
p45
I42
sS'Polish'
p46
I26
sS'Arabic'
p47
I32
s.